target datalayout = "e-m:e-p270:32:32-p271:32:32-p272:64:64-i64:64-i128:128-f80:128-n8:16:32:64-S128"
target triple = "x86_64-pc-linux-gnu"

%struct.mi_page_s = type { i32, i32, i8, i16, i16, %union.mi_page_flags_s, i8, ptr, ptr, i16, i8, i8, i64, ptr, i64, i64, ptr, ptr, [1 x ptr] }
%union.mi_page_flags_s = type { i8 }

; Function Attrs: inlinehint nounwind uwtable
define internal i64 @mi_tf_make(ptr noundef %0, i32 noundef %1) #1 {
  %3 = alloca ptr, align 8
  %4 = alloca i32, align 4
  store ptr %0, ptr %3, align 8, !tbaa !42
  store i32 %1, ptr %4, align 4, !tbaa !28
  %5 = load ptr, ptr %3, align 8, !tbaa !42
  %6 = ptrtoint ptr %5 to i64
  %7 = load i32, ptr %4, align 4, !tbaa !28
  %8 = zext i32 %7 to i64
  %9 = or i64 %6, %8
  ret i64 %9
}

; Function Attrs: inlinehint nounwind uwtable
define internal ptr @mi_tf_block(i64 noundef %0) #1 {
  %2 = alloca i64, align 8
  store i64 %0, ptr %2, align 8, !tbaa !3
  %3 = load i64, ptr %2, align 8, !tbaa !3
  %4 = and i64 %3, -4
  %5 = inttoptr i64 %4 to ptr
  ret ptr %5
}

; Function Attrs: inlinehint nounwind uwtable
define internal void @mi_atomic_yield() #1 {
  call void @llvm.x86.sse2.pause()
  ret void
}

; Function Attrs: inlinehint nounwind uwtable
define internal i32 @mi_tf_delayed(i64 noundef %0) #1 {
  %2 = alloca i64, align 8
  store i64 %0, ptr %2, align 8, !tbaa !3
  %3 = load i64, ptr %2, align 8, !tbaa !3
  %4 = and i64 %3, 3
  %5 = trunc i64 %4 to i32
  ret i32 %5
}

; Function Attrs: inlinehint nounwind uwtable
define internal i64 @mi_tf_set_delayed(i64 noundef %0, i32 noundef %1) #1 {
  %3 = alloca i64, align 8
  %4 = alloca i32, align 4
  store i64 %0, ptr %3, align 8, !tbaa !3
  store i32 %1, ptr %4, align 4, !tbaa !28
  %5 = load i64, ptr %3, align 8, !tbaa !3
  %6 = call ptr @mi_tf_block(i64 noundef %5) #10
  %7 = load i32, ptr %4, align 4, !tbaa !28
  %8 = call i64 @mi_tf_make(ptr noundef %6, i32 noundef %7) #10
  ret i64 %8
}

; Function Attrs: nounwind uwtable
define hidden zeroext i1 @_mi_page_try_use_delayed_free(ptr noundef %0, i32 noundef %1, i1 noundef zeroext %2) #0 {
  %4 = alloca i1, align 1
  %5 = alloca ptr, align 8
  %6 = alloca i32, align 4
  %7 = alloca i8, align 1
  %8 = alloca i64, align 8
  %9 = alloca i32, align 4
  %10 = alloca i64, align 8
  %11 = alloca i64, align 8
  %12 = alloca i64, align 8
  %13 = alloca i32, align 4
  %14 = alloca i64, align 8
  %15 = alloca i8, align 1
  store ptr %0, ptr %5, align 8, !tbaa !17
  store i32 %1, ptr %6, align 4, !tbaa !28
  %16 = zext i1 %2 to i8
  store i8 %16, ptr %7, align 1, !tbaa !29
  call void @llvm.lifetime.start.p0(i64 8, ptr %8) #6
  call void @llvm.lifetime.start.p0(i64 4, ptr %9) #6
  call void @llvm.lifetime.start.p0(i64 8, ptr %10) #6
  call void @llvm.lifetime.start.p0(i64 8, ptr %11) #6
  store i64 0, ptr %11, align 8, !tbaa !3
  br label %17

17:                                               ; preds = %75, %3
  %18 = load ptr, ptr %5, align 8, !tbaa !17
  %19 = getelementptr inbounds nuw %struct.mi_page_s, ptr %18, i32 0, i32 14
  %20 = load atomic i64, ptr %19 acquire, align 8
  store i64 %20, ptr %12, align 8
  %21 = load i64, ptr %12, align 8, !tbaa !3
  store i64 %21, ptr %10, align 8, !tbaa !3
  %22 = load i64, ptr %10, align 8, !tbaa !3
  %23 = load i32, ptr %6, align 4, !tbaa !28
  %24 = call i64 @mi_tf_set_delayed(i64 noundef %22, i32 noundef %23) #10
  store i64 %24, ptr %8, align 8, !tbaa !3
  %25 = load i64, ptr %10, align 8, !tbaa !3
  %26 = call i32 @mi_tf_delayed(i64 noundef %25) #10
  store i32 %26, ptr %9, align 4, !tbaa !28
  %27 = load i32, ptr %9, align 4, !tbaa !28
  %28 = icmp eq i32 %27, 1
  %29 = xor i1 %28, true
  %30 = xor i1 %29, true
  %31 = zext i1 %30 to i32
  %32 = sext i32 %31 to i64
  %33 = call i64 @llvm.expect.i64(i64 %32, i64 0)
  %34 = icmp ne i64 %33, 0
  br i1 %34, label %35, label %42

35:                                               ; preds = %17
  %36 = load i64, ptr %11, align 8, !tbaa !3
  %37 = icmp uge i64 %36, 4
  br i1 %37, label %38, label %39

38:                                               ; preds = %35
  store i1 false, ptr %4, align 1
  store i32 1, ptr %13, align 4
  br label %78

39:                                               ; preds = %35
  %40 = load i64, ptr %11, align 8, !tbaa !3
  %41 = add i64 %40, 1
  store i64 %41, ptr %11, align 8, !tbaa !3
  call void @mi_atomic_yield() #10
  br label %56

42:                                               ; preds = %17
  %43 = load i32, ptr %6, align 4, !tbaa !28
  %44 = load i32, ptr %9, align 4, !tbaa !28
  %45 = icmp eq i32 %43, %44
  br i1 %45, label %46, label %47

46:                                               ; preds = %42
  br label %77

47:                                               ; preds = %42
  %48 = load i8, ptr %7, align 1, !tbaa !29, !range !31, !noundef !32
  %49 = trunc i8 %48 to i1
  br i1 %49, label %54, label %50

50:                                               ; preds = %47
  %51 = load i32, ptr %9, align 4, !tbaa !28
  %52 = icmp eq i32 %51, 3
  br i1 %52, label %53, label %54

53:                                               ; preds = %50
  br label %77

54:                                               ; preds = %50, %47
  br label %55

55:                                               ; preds = %54
  br label %56

56:                                               ; preds = %55, %39
  br label %57

57:                                               ; preds = %56
  %58 = load i32, ptr %9, align 4, !tbaa !28
  %59 = icmp eq i32 %58, 1
  br i1 %59, label %75, label %60

60:                                               ; preds = %57
  %61 = load ptr, ptr %5, align 8, !tbaa !17
  %62 = getelementptr inbounds nuw %struct.mi_page_s, ptr %61, i32 0, i32 14
  %63 = load i64, ptr %8, align 8, !tbaa !3
  store i64 %63, ptr %14, align 8, !tbaa !3
  %64 = load i64, ptr %10, align 8
  %65 = load i64, ptr %14, align 8
  %66 = cmpxchg weak ptr %62, i64 %64, i64 %65 release monotonic, align 8
  %67 = extractvalue { i64, i1 } %66, 0
  %68 = extractvalue { i64, i1 } %66, 1
  br i1 %68, label %70, label %69

69:                                               ; preds = %60
  store i64 %67, ptr %10, align 8
  br label %70

70:                                               ; preds = %69, %60
  %71 = zext i1 %68 to i8
  store i8 %71, ptr %15, align 1, !tbaa !29
  %72 = load i8, ptr %15, align 1, !tbaa !29, !range !31, !noundef !32
  %73 = trunc i8 %72 to i1
  %74 = xor i1 %73, true
  br label %75

75:                                               ; preds = %70, %57
  %76 = phi i1 [ true, %57 ], [ %74, %70 ]
  br i1 %76, label %17, label %77, !llvm.loop !39

77:                                               ; preds = %75, %53, %46
  store i1 true, ptr %4, align 1
  store i32 1, ptr %13, align 4
  br label %78

78:                                               ; preds = %77, %38
  call void @llvm.lifetime.end.p0(i64 8, ptr %11) #6
  call void @llvm.lifetime.end.p0(i64 8, ptr %10) #6
  call void @llvm.lifetime.end.p0(i64 4, ptr %9) #6
  call void @llvm.lifetime.end.p0(i64 8, ptr %8) #6
  %79 = load i1, ptr %4, align 1
  ret i1 %79
}