; Function Attrs: nounwind uwtable
define hidden noundef zeroext i1 @_mi_page_try_use_delayed_free(ptr noundef captures(none) %0, i32 noundef %1, i1 noundef zeroext %2) local_unnamed_addr #1 {
  %4 = getelementptr inbounds nuw i8, ptr %0, i64 56
  %5 = zext i32 %1 to i64
  br label %.critedge.outer

.critedge.outer:                                  ; preds = %15, %3
  %.019.ph = phi i64 [ %16, %15 ], [ 0, %3 ]
  br label %.critedge

.critedge:                                        ; preds = %.critedge.outer, %17
  %6 = load atomic i64, ptr %4 acquire, align 8
  %7 = and i64 %6, -4
  %8 = or i64 %7, %5
  %9 = trunc i64 %6 to i32
  %10 = and i32 %9, 3
  %.not.not.not.not.not = icmp ne i32 %10, 1
  br i1 %.not.not.not.not.not, label %12, label %11, !prof !28

11:                                               ; preds = %.critedge
  %exitcond = icmp eq i64 %.019.ph, 4
  br i1 %exitcond, label %.loopexit, label %15

12:                                               ; preds = %.critedge
  %13 = icmp ne i32 %1, %10
  %14 = icmp ne i32 %10, 3
  %or.cond.not = or i1 %2, %14
  %or.cond = and i1 %13, %or.cond.not
  br i1 %or.cond, label %17, label %.loopexit

15:                                               ; preds = %11
  %16 = add nuw nsw i64 %.019.ph, 1
  tail call void @llvm.x86.sse2.pause()
  br label %.critedge.outer

17:                                               ; preds = %12
  %18 = cmpxchg weak ptr %4, i64 %6, i64 %8 release monotonic, align 8
  %19 = extractvalue { i64, i1 } %18, 1
  br i1 %19, label %.loopexit, label %.critedge, !llvm.loop !15

.loopexit:                                        ; preds = %11, %17, %12
  ret i1 %.not.not.not.not.not
}